; Function Attrs: mustprogress uwtable
define dso_local void @_ZN4Luau7Fixture14validateErrorsERKSt6vectorINS_9TypeErrorESaIS2_EE(ptr noundef nonnull readnone align 8 captures(none) dereferenceable(2232) %0, ptr noundef nonnull readonly align 8 captures(none) dereferenceable(24) %1) local_unnamed_addr #6 align 2 personality ptr @__gxx_personality_v0 {
  %3 = alloca %"class.std::__cxx11::basic_ostringstream", align 8
  %4 = alloca %"class.std::__cxx11::basic_string", align 8
  call void @_ZNSt7__cxx1119basic_ostringstreamIcSt11char_traitsIcESaIcEEC1Ev(ptr noundef nonnull align 8 dereferenceable(112) %3)
  %5 = load ptr, ptr %1, align 8
  %6 = getelementptr inbounds nuw i8, ptr %1, i64 8
  %7 = load ptr, ptr %6, align 8
  %.not9 = icmp eq ptr %5, %7
  br i1 %.not9, label %._crit_edge, label %.lr.ph

.lr.ph:                                           ; preds = %2, %15
  %.sroa.06.010 = phi ptr [ %16, %15 ], [ %5, %2 ]
  %8 = load ptr, ptr %3, align 8
  %9 = getelementptr i8, ptr %8, i64 -24
  %10 = load i64, ptr %9, align 8
  %11 = getelementptr inbounds i8, ptr %3, i64 %10
  invoke void @_ZNSt9basic_iosIcSt11char_traitsIcEE5clearESt12_Ios_Iostate(ptr noundef nonnull align 8 dereferenceable(264) %11, i32 noundef 0)
          to label %12 unwind label %17

12:                                               ; preds = %.lr.ph
  %13 = invoke noundef nonnull align 8 dereferenceable(8) ptr @_ZN4LuaulsERSoRKNS_9TypeErrorE(ptr noundef nonnull align 8 dereferenceable(8) %3, ptr noundef nonnull align 8 dereferenceable(160) %.sroa.06.010)
          to label %14 unwind label %17

14:                                               ; preds = %12
  invoke void @_ZN4Luau8toStringB5cxx11ERKNS_9TypeErrorE(ptr dead_on_unwind nonnull writable sret(%"class.std::__cxx11::basic_string") align 8 %4, ptr noundef nonnull align 8 dereferenceable(160) %.sroa.06.010)
          to label %15 unwind label %17

15:                                               ; preds = %14
  call void @_ZNSt7__cxx1112basic_stringIcSt11char_traitsIcESaIcEED1Ev(ptr noundef nonnull align 8 dereferenceable(32) %4) #27
  %16 = getelementptr inbounds nuw i8, ptr %.sroa.06.010, i64 160
  %.not = icmp eq ptr %16, %7
  br i1 %.not, label %._crit_edge, label %.lr.ph

17:                                               ; preds = %14, %12, %.lr.ph
  %18 = landingpad { ptr, i32 }
          cleanup
  call void @_ZNSt7__cxx1119basic_ostringstreamIcSt11char_traitsIcESaIcEED1Ev(ptr noundef nonnull align 8 dereferenceable(112) %3) #27
  resume { ptr, i32 } %18

._crit_edge:                                      ; preds = %15, %2
  call void @_ZNSt7__cxx1119basic_ostringstreamIcSt11char_traitsIcESaIcEED1Ev(ptr noundef nonnull align 8 dereferenceable(112) %3) #27
  ret void
}